; ModuleID = '15/5.c'
source_filename = "15/5.c"
target datalayout = "e-m:e-p270:32:32-p271:32:32-p272:64:64-i64:64-f80:128-n8:16:32:64-S128"
target triple = "x86_64-pc-linux-gnu"

@.str = private unnamed_addr constant [4 x i8] c"%d\0A\00", align 1
@.str.1 = private unnamed_addr constant [3 x i8] c"%d\00", align 1

; Function Attrs: noinline nounwind uwtable
define dso_local void @main() #0 {
  %1 = alloca i32, align 4
  %2 = alloca [100 x [100 x i32]], align 16
  %3 = alloca i32, align 4
  %4 = alloca i32, align 4
  %5 = alloca i32, align 4
  %6 = alloca i32, align 4
  %7 = alloca i32, align 4
  %8 = alloca i32, align 4
  %9 = alloca i32, align 4
  %10 = bitcast [100 x [100 x i32]]* %2 to i8*
  call void @llvm.memset.p0i8.i64(i8* align 16 %10, i8 0, i64 40000, i1 false)
  %11 = bitcast i8* %10 to <{ <{ i32, [99 x i32] }>, [99 x <{ i32, [99 x i32] }>] }>*
  %12 = getelementptr inbounds <{ <{ i32, [99 x i32] }>, [99 x <{ i32, [99 x i32] }>] }>, <{ <{ i32, [99 x i32] }>, [99 x <{ i32, [99 x i32] }>] }>* %11, i32 0, i32 0
  %13 = getelementptr inbounds <{ i32, [99 x i32] }>, <{ i32, [99 x i32] }>* %12, i32 0, i32 0
  store i32 1, i32* %13, align 16
  %14 = call i32 (i8*, ...) @__isoc99_scanf(i8* getelementptr inbounds ([4 x i8], [4 x i8]* @.str, i64 0, i64 0), i32* %1)
  store i32 0, i32* %3, align 4
  br label %15

15:                                               ; preds = %38, %0
  %16 = load i32, i32* %3, align 4
  %17 = load i32, i32* %1, align 4
  %18 = sub nsw i32 %17, 1
  %19 = icmp sle i32 %16, %18
  br i1 %19, label %20, label %41

20:                                               ; preds = %15
  store i32 0, i32* %4, align 4
  br label %21

21:                                               ; preds = %34, %20
  %22 = load i32, i32* %4, align 4
  %23 = load i32, i32* %1, align 4
  %24 = sub nsw i32 %23, 1
  %25 = icmp sle i32 %22, %24
  br i1 %25, label %26, label %37

26:                                               ; preds = %21
  %27 = load i32, i32* %3, align 4
  %28 = sext i32 %27 to i64
  %29 = getelementptr inbounds [100 x [100 x i32]], [100 x [100 x i32]]* %2, i64 0, i64 %28
  %30 = load i32, i32* %4, align 4
  %31 = sext i32 %30 to i64
  %32 = getelementptr inbounds [100 x i32], [100 x i32]* %29, i64 0, i64 %31
  %33 = call i32 (i8*, ...) @__isoc99_scanf(i8* getelementptr inbounds ([3 x i8], [3 x i8]* @.str.1, i64 0, i64 0), i32* %32)
  br label %34

34:                                               ; preds = %26
  %35 = load i32, i32* %4, align 4
  %36 = add nsw i32 %35, 1
  store i32 %36, i32* %4, align 4
  br label %21

37:                                               ; preds = %21
  br label %38

38:                                               ; preds = %37
  %39 = load i32, i32* %3, align 4
  %40 = add nsw i32 %39, 1
  store i32 %40, i32* %3, align 4
  br label %15

41:                                               ; preds = %15
  store i32 0, i32* %5, align 4
  store i32 0, i32* %6, align 4
  store i32 0, i32* %3, align 4
  br label %42

42:                                               ; preds = %76, %41
  %43 = load i32, i32* %3, align 4
  %44 = load i32, i32* %1, align 4
  %45 = sub nsw i32 %44, 1
  %46 = icmp sle i32 %43, %45
  br i1 %46, label %47, label %79

47:                                               ; preds = %42
  store i32 0, i32* %4, align 4
  br label %48

48:                                               ; preds = %63, %47
  %49 = load i32, i32* %4, align 4
  %50 = load i32, i32* %1, align 4
  %51 = sub nsw i32 %50, 1
  %52 = icmp sle i32 %49, %51
  br i1 %52, label %53, label %66

53:                                               ; preds = %48
  %54 = load i32, i32* %5, align 4
  %55 = load i32, i32* %3, align 4
  %56 = sext i32 %55 to i64
  %57 = getelementptr inbounds [100 x [100 x i32]], [100 x [100 x i32]]* %2, i64 0, i64 %56
  %58 = load i32, i32* %4, align 4
  %59 = sext i32 %58 to i64
  %60 = getelementptr inbounds [100 x i32], [100 x i32]* %57, i64 0, i64 %59
  %61 = load i32, i32* %60, align 4
  %62 = add nsw i32 %54, %61
  store i32 %62, i32* %5, align 4
  br label %63

63:                                               ; preds = %53
  %64 = load i32, i32* %4, align 4
  %65 = add nsw i32 %64, 1
  store i32 %65, i32* %4, align 4
  br label %48

66:                                               ; preds = %48
  %67 = load i32, i32* %5, align 4
  %68 = load i32, i32* %1, align 4
  %69 = sub nsw i32 %68, 2
  %70 = mul nsw i32 255, %69
  %71 = icmp eq i32 %67, %70
  br i1 %71, label %72, label %75

72:                                               ; preds = %66
  %73 = load i32, i32* %6, align 4
  %74 = add nsw i32 %73, 1
  store i32 %74, i32* %6, align 4
  br label %75

75:                                               ; preds = %72, %66
  store i32 0, i32* %5, align 4
  br label %76

76:                                               ; preds = %75
  %77 = load i32, i32* %3, align 4
  %78 = add nsw i32 %77, 1
  store i32 %78, i32* %3, align 4
  br label %42

79:                                               ; preds = %42
  store i32 0, i32* %7, align 4
  store i32 0, i32* %8, align 4
  store i32 0, i32* %4, align 4
  br label %80

80:                                               ; preds = %114, %79
  %81 = load i32, i32* %4, align 4
  %82 = load i32, i32* %1, align 4
  %83 = sub nsw i32 %82, 1
  %84 = icmp sle i32 %81, %83
  br i1 %84, label %85, label %117

85:                                               ; preds = %80
  store i32 0, i32* %3, align 4
  br label %86

86:                                               ; preds = %101, %85
  %87 = load i32, i32* %3, align 4
  %88 = load i32, i32* %1, align 4
  %89 = sub nsw i32 %88, 1
  %90 = icmp sle i32 %87, %89
  br i1 %90, label %91, label %104

91:                                               ; preds = %86
  %92 = load i32, i32* %7, align 4
  %93 = load i32, i32* %3, align 4
  %94 = sext i32 %93 to i64
  %95 = getelementptr inbounds [100 x [100 x i32]], [100 x [100 x i32]]* %2, i64 0, i64 %94
  %96 = load i32, i32* %4, align 4
  %97 = sext i32 %96 to i64
  %98 = getelementptr inbounds [100 x i32], [100 x i32]* %95, i64 0, i64 %97
  %99 = load i32, i32* %98, align 4
  %100 = add nsw i32 %92, %99
  store i32 %100, i32* %7, align 4
  br label %101

101:                                              ; preds = %91
  %102 = load i32, i32* %3, align 4
  %103 = add nsw i32 %102, 1
  store i32 %103, i32* %3, align 4
  br label %86

104:                                              ; preds = %86
  %105 = load i32, i32* %7, align 4
  %106 = load i32, i32* %1, align 4
  %107 = sub nsw i32 %106, 2
  %108 = mul nsw i32 255, %107
  %109 = icmp eq i32 %105, %108
  br i1 %109, label %110, label %113

110:                                              ; preds = %104
  %111 = load i32, i32* %8, align 4
  %112 = add nsw i32 %111, 1
  store i32 %112, i32* %8, align 4
  br label %113

113:                                              ; preds = %110, %104
  store i32 0, i32* %7, align 4
  br label %114

114:                                              ; preds = %113
  %115 = load i32, i32* %4, align 4
  %116 = add nsw i32 %115, 1
  store i32 %116, i32* %4, align 4
  br label %80

117:                                              ; preds = %80
  %118 = load i32, i32* %6, align 4
  %119 = load i32, i32* %8, align 4
  %120 = mul nsw i32 %118, %119
  store i32 %120, i32* %9, align 4
  %121 = load i32, i32* %9, align 4
  %122 = call i32 (i8*, ...) @printf(i8* getelementptr inbounds ([3 x i8], [3 x i8]* @.str.1, i64 0, i64 0), i32 %121)
  ret void
}

; Function Attrs: argmemonly nounwind willreturn
declare void @llvm.memset.p0i8.i64(i8* nocapture writeonly, i8, i64, i1 immarg) #1

declare dso_local i32 @__isoc99_scanf(i8*, ...) #2

declare dso_local i32 @printf(i8*, ...) #2


!llvm.module.flags = !{!0}
!llvm.ident = !{!1}

!0 = !{i32 1, !"wchar_size", i32 4}
!1 = !{!"clang version 10.0.0-4ubuntu1 "}
